; Function Attrs: mustprogress nofree norecurse nosync nounwind willreturn memory(read, inaccessiblemem: none) uwtable
define hidden noundef i32 @_ZNK7nanogui6Widget9font_sizeEv(ptr nocapture noundef nonnull readonly align 8 dereferenceable(140) %0) local_unnamed_addr #5 align 2 {
  %2 = getelementptr inbounds i8, ptr %0, i64 128
  %3 = load i32, ptr %2, align 8
  %4 = icmp slt i32 %3, 0
  %5 = getelementptr inbounds i8, ptr %0, i64 24
  %6 = load ptr, ptr %5, align 8
  %.not = icmp eq ptr %6, null
  %7 = getelementptr inbounds i8, ptr %6, i64 32
  %spec.select = select i1 %.not, ptr %2, ptr %7
  %.in = select i1 %4, ptr %spec.select, ptr %2
  %8 = load i32, ptr %.in, align 8
  ret i32 %8
}